(dp1
S'lpc_parameters'
p2
(dp3
S'convergence_at'
p4
F0.0001
sS'pruning_thresh'
p5
F0
sS'rho0'
p6
F0.40000000000000002
sS'it'
p7
I100
sS'scaled'
p8
I01
sS'gapsize'
p9
F1.5
sS'mult'
p10
I5
sS'depth'
p11
I1
sS'h'
F0.02
sS'cross'
p12
I00
sS't0'
p13
F0.029999999999999999
sS'pen'
p14
I3
sS'way'
p15
S'two'
p16
sS'boundary'
p17
F0.0050000000000000001
ssS'lpc_filename'
p18
S'../resources/muon-proton_6659714327790660657.pkl'
p19
s.
