(dp1
S'reader_parameters'
p2
(dp3
S'max_events'
p4
I2
sS'filename'
p5
S'/home/droythorne/Downloads/muon-proton.root'
p6
ssS'lpc_parameters'
p7
(dp8
S'convergence_at'
p9
F0.0001
sS'pruning_thresh'
p10
F0
sS'rho0'
p11
F0.40000000000000002
sS'it'
p12
I200
sS'scaled'
p13
I00
sS'gapsize'
p14
F1.5
sS'mult'
p15
I5
sS'depth'
p16
I1
sS'h'
F2
sS'cross'
p17
I00
sS't0'
p18
F5
sS'pen'
p19
F5
sS'way'
p20
S'two'
p21
sS'boundary'
p22
F0.0050000000000000001
ssS'lpc_filename'
p23
S'../../resources/muon-proton_1266297863573875304.pkl'
p24
s.